; ModuleID = '12/81.c'
source_filename = "12/81.c"
target datalayout = "e-m:e-p270:32:32-p271:32:32-p272:64:64-i64:64-f80:128-n8:16:32:64-S128"
target triple = "x86_64-pc-linux-gnu"

@.str = private unnamed_addr constant [3 x i8] c"%d\00", align 1
@.str.1 = private unnamed_addr constant [4 x i8] c"%d\0A\00", align 1

; Function Attrs: noinline nounwind uwtable
define dso_local i32 @main() #0 {
  %1 = alloca i32, align 4
  %2 = alloca i32, align 4
  %3 = alloca i32, align 4
  %4 = alloca i32, align 4
  %5 = alloca i32, align 4
  %6 = alloca i32, align 4
  %7 = alloca i32, align 4
  %8 = alloca [20 x [20 x i32]], align 16
  %9 = alloca [20 x i32], align 16
  store i32 0, i32* %1, align 4
  store i32 0, i32* %7, align 4
  store i32 0, i32* %2, align 4
  br label %10

10:                                               ; preds = %58, %0
  store i32 0, i32* %3, align 4
  br label %11

11:                                               ; preds = %44, %10
  %12 = load i32, i32* %2, align 4
  %13 = sext i32 %12 to i64
  %14 = getelementptr inbounds [20 x [20 x i32]], [20 x [20 x i32]]* %8, i64 0, i64 %13
  %15 = load i32, i32* %3, align 4
  %16 = sext i32 %15 to i64
  %17 = getelementptr inbounds [20 x i32], [20 x i32]* %14, i64 0, i64 %16
  %18 = call i32 (i8*, ...) @__isoc99_scanf(i8* getelementptr inbounds ([3 x i8], [3 x i8]* @.str, i64 0, i64 0), i32* %17)
  %19 = load i32, i32* %2, align 4
  %20 = sext i32 %19 to i64
  %21 = getelementptr inbounds [20 x [20 x i32]], [20 x [20 x i32]]* %8, i64 0, i64 %20
  %22 = load i32, i32* %3, align 4
  %23 = sext i32 %22 to i64
  %24 = getelementptr inbounds [20 x i32], [20 x i32]* %21, i64 0, i64 %23
  %25 = load i32, i32* %24, align 4
  %26 = icmp eq i32 %25, -1
  br i1 %26, label %27, label %29

27:                                               ; preds = %11
  %28 = load i32, i32* %2, align 4
  store i32 %28, i32* %5, align 4
  br label %47

29:                                               ; preds = %11
  %30 = load i32, i32* %2, align 4
  %31 = sext i32 %30 to i64
  %32 = getelementptr inbounds [20 x [20 x i32]], [20 x [20 x i32]]* %8, i64 0, i64 %31
  %33 = load i32, i32* %3, align 4
  %34 = sext i32 %33 to i64
  %35 = getelementptr inbounds [20 x i32], [20 x i32]* %32, i64 0, i64 %34
  %36 = load i32, i32* %35, align 4
  %37 = icmp eq i32 %36, 0
  br i1 %37, label %38, label %43

38:                                               ; preds = %29
  %39 = load i32, i32* %3, align 4
  %40 = load i32, i32* %2, align 4
  %41 = sext i32 %40 to i64
  %42 = getelementptr inbounds [20 x i32], [20 x i32]* %9, i64 0, i64 %41
  store i32 %39, i32* %42, align 4
  br label %47

43:                                               ; preds = %29
  br label %44

44:                                               ; preds = %43
  %45 = load i32, i32* %3, align 4
  %46 = add nsw i32 %45, 1
  store i32 %46, i32* %3, align 4
  br label %11

47:                                               ; preds = %38, %27
  %48 = load i32, i32* %2, align 4
  %49 = sext i32 %48 to i64
  %50 = getelementptr inbounds [20 x [20 x i32]], [20 x [20 x i32]]* %8, i64 0, i64 %49
  %51 = load i32, i32* %3, align 4
  %52 = sext i32 %51 to i64
  %53 = getelementptr inbounds [20 x i32], [20 x i32]* %50, i64 0, i64 %52
  %54 = load i32, i32* %53, align 4
  %55 = icmp eq i32 %54, -1
  br i1 %55, label %56, label %57

56:                                               ; preds = %47
  br label %61

57:                                               ; preds = %47
  br label %58

58:                                               ; preds = %57
  %59 = load i32, i32* %2, align 4
  %60 = add nsw i32 %59, 1
  store i32 %60, i32* %2, align 4
  br label %10

61:                                               ; preds = %56
  store i32 0, i32* %2, align 4
  br label %62

62:                                               ; preds = %165, %61
  %63 = load i32, i32* %2, align 4
  %64 = load i32, i32* %5, align 4
  %65 = icmp slt i32 %63, %64
  br i1 %65, label %66, label %168

66:                                               ; preds = %62
  store i32 0, i32* %7, align 4
  store i32 0, i32* %3, align 4
  br label %67

67:                                               ; preds = %159, %66
  %68 = load i32, i32* %3, align 4
  %69 = load i32, i32* %2, align 4
  %70 = sext i32 %69 to i64
  %71 = getelementptr inbounds [20 x i32], [20 x i32]* %9, i64 0, i64 %70
  %72 = load i32, i32* %71, align 4
  %73 = icmp slt i32 %68, %72
  br i1 %73, label %74, label %162

74:                                               ; preds = %67
  store i32 0, i32* %4, align 4
  br label %75

75:                                               ; preds = %155, %74
  %76 = load i32, i32* %4, align 4
  %77 = load i32, i32* %3, align 4
  %78 = icmp sle i32 %76, %77
  br i1 %78, label %79, label %158

79:                                               ; preds = %75
  %80 = load i32, i32* %2, align 4
  %81 = sext i32 %80 to i64
  %82 = getelementptr inbounds [20 x [20 x i32]], [20 x [20 x i32]]* %8, i64 0, i64 %81
  %83 = load i32, i32* %3, align 4
  %84 = sext i32 %83 to i64
  %85 = getelementptr inbounds [20 x i32], [20 x i32]* %82, i64 0, i64 %84
  %86 = load i32, i32* %85, align 4
  %87 = load i32, i32* %2, align 4
  %88 = sext i32 %87 to i64
  %89 = getelementptr inbounds [20 x [20 x i32]], [20 x [20 x i32]]* %8, i64 0, i64 %88
  %90 = load i32, i32* %4, align 4
  %91 = sext i32 %90 to i64
  %92 = getelementptr inbounds [20 x i32], [20 x i32]* %89, i64 0, i64 %91
  %93 = load i32, i32* %92, align 4
  %94 = srem i32 %86, %93
  %95 = icmp eq i32 %94, 0
  br i1 %95, label %96, label %116

96:                                               ; preds = %79
  %97 = load i32, i32* %2, align 4
  %98 = sext i32 %97 to i64
  %99 = getelementptr inbounds [20 x [20 x i32]], [20 x [20 x i32]]* %8, i64 0, i64 %98
  %100 = load i32, i32* %3, align 4
  %101 = sext i32 %100 to i64
  %102 = getelementptr inbounds [20 x i32], [20 x i32]* %99, i64 0, i64 %101
  %103 = load i32, i32* %102, align 4
  %104 = load i32, i32* %2, align 4
  %105 = sext i32 %104 to i64
  %106 = getelementptr inbounds [20 x [20 x i32]], [20 x [20 x i32]]* %8, i64 0, i64 %105
  %107 = load i32, i32* %4, align 4
  %108 = sext i32 %107 to i64
  %109 = getelementptr inbounds [20 x i32], [20 x i32]* %106, i64 0, i64 %108
  %110 = load i32, i32* %109, align 4
  %111 = sdiv i32 %103, %110
  %112 = icmp eq i32 %111, 2
  br i1 %112, label %113, label %116

113:                                              ; preds = %96
  %114 = load i32, i32* %7, align 4
  %115 = add nsw i32 %114, 1
  store i32 %115, i32* %7, align 4
  br label %154

116:                                              ; preds = %96, %79
  %117 = load i32, i32* %2, align 4
  %118 = sext i32 %117 to i64
  %119 = getelementptr inbounds [20 x [20 x i32]], [20 x [20 x i32]]* %8, i64 0, i64 %118
  %120 = load i32, i32* %4, align 4
  %121 = sext i32 %120 to i64
  %122 = getelementptr inbounds [20 x i32], [20 x i32]* %119, i64 0, i64 %121
  %123 = load i32, i32* %122, align 4
  %124 = load i32, i32* %2, align 4
  %125 = sext i32 %124 to i64
  %126 = getelementptr inbounds [20 x [20 x i32]], [20 x [20 x i32]]* %8, i64 0, i64 %125
  %127 = load i32, i32* %3, align 4
  %128 = sext i32 %127 to i64
  %129 = getelementptr inbounds [20 x i32], [20 x i32]* %126, i64 0, i64 %128
  %130 = load i32, i32* %129, align 4
  %131 = srem i32 %123, %130
  %132 = icmp eq i32 %131, 0
  br i1 %132, label %133, label %153

133:                                              ; preds = %116
  %134 = load i32, i32* %2, align 4
  %135 = sext i32 %134 to i64
  %136 = getelementptr inbounds [20 x [20 x i32]], [20 x [20 x i32]]* %8, i64 0, i64 %135
  %137 = load i32, i32* %4, align 4
  %138 = sext i32 %137 to i64
  %139 = getelementptr inbounds [20 x i32], [20 x i32]* %136, i64 0, i64 %138
  %140 = load i32, i32* %139, align 4
  %141 = load i32, i32* %2, align 4
  %142 = sext i32 %141 to i64
  %143 = getelementptr inbounds [20 x [20 x i32]], [20 x [20 x i32]]* %8, i64 0, i64 %142
  %144 = load i32, i32* %3, align 4
  %145 = sext i32 %144 to i64
  %146 = getelementptr inbounds [20 x i32], [20 x i32]* %143, i64 0, i64 %145
  %147 = load i32, i32* %146, align 4
  %148 = sdiv i32 %140, %147
  %149 = icmp eq i32 %148, 2
  br i1 %149, label %150, label %153

150:                                              ; preds = %133
  %151 = load i32, i32* %7, align 4
  %152 = add nsw i32 %151, 1
  store i32 %152, i32* %7, align 4
  br label %153

153:                                              ; preds = %150, %133, %116
  br label %154

154:                                              ; preds = %153, %113
  br label %155

155:                                              ; preds = %154
  %156 = load i32, i32* %4, align 4
  %157 = add nsw i32 %156, 1
  store i32 %157, i32* %4, align 4
  br label %75

158:                                              ; preds = %75
  br label %159

159:                                              ; preds = %158
  %160 = load i32, i32* %3, align 4
  %161 = add nsw i32 %160, 1
  store i32 %161, i32* %3, align 4
  br label %67

162:                                              ; preds = %67
  %163 = load i32, i32* %7, align 4
  %164 = call i32 (i8*, ...) @printf(i8* getelementptr inbounds ([4 x i8], [4 x i8]* @.str.1, i64 0, i64 0), i32 %163)
  br label %165

165:                                              ; preds = %162
  %166 = load i32, i32* %2, align 4
  %167 = add nsw i32 %166, 1
  store i32 %167, i32* %2, align 4
  br label %62

168:                                              ; preds = %62
  ret i32 0
}

declare dso_local i32 @__isoc99_scanf(i8*, ...) #1

declare dso_local i32 @printf(i8*, ...) #1


!llvm.module.flags = !{!0}
!llvm.ident = !{!1}

!0 = !{i32 1, !"wchar_size", i32 4}
!1 = !{!"clang version 10.0.0-4ubuntu1 "}
